; Function Attrs: nounwind uwtable
define dso_local i32 @Curl_xfer_write_resp(ptr noundef %0, ptr noundef %1, i64 noundef %2, i1 noundef zeroext %3) local_unnamed_addr #0 {
  %5 = getelementptr inbounds nuw i8, ptr %0, i64 24
  %6 = load ptr, ptr %5, align 8, !tbaa !87
  %7 = getelementptr inbounds nuw i8, ptr %6, i64 928
  %8 = load ptr, ptr %7, align 8, !tbaa !112
  %9 = getelementptr inbounds nuw i8, ptr %8, i64 104
  %10 = load ptr, ptr %9, align 8, !tbaa !113
  %.not = icmp eq ptr %10, null
  br i1 %.not, label %13, label %11

11:                                               ; preds = %4
  %12 = tail call i32 %10(ptr noundef nonnull %0, ptr noundef %1, i64 noundef %2, i1 noundef zeroext %3) #6
  br label %16

13:                                               ; preds = %4
  %.not31 = icmp ne i64 %2, 0
  %brmerge = or i1 %.not31, %3
  br i1 %brmerge, label %14, label %16

14:                                               ; preds = %13
  %spec.select = select i1 %3, i32 129, i32 1
  %15 = tail call i32 @Curl_client_write(ptr noundef nonnull %0, i32 noundef %spec.select, ptr noundef %1, i64 noundef %2) #6
  br label %16

16:                                               ; preds = %13, %14, %11
  %.027 = phi i32 [ %12, %11 ], [ %15, %14 ], [ 0, %13 ]
  %.not32 = icmp eq i32 %.027, 0
  %brmerge37.not = and i1 %3, %.not32
  br i1 %brmerge37.not, label %17, label %21

17:                                               ; preds = %16
  %18 = getelementptr inbounds nuw i8, ptr %0, i64 449
  %19 = load i32, ptr %18, align 1
  %20 = or i32 %19, 24
  store i32 %20, ptr %18, align 1
  br label %21

21:                                               ; preds = %17, %16
  %22 = getelementptr inbounds nuw i8, ptr %0, i64 2562
  %23 = load i64, ptr %22, align 2
  %24 = and i64 %23, 134217728
  %.not34 = icmp eq i64 %24, 0
  br i1 %.not34, label %37, label %25

25:                                               ; preds = %21
  %26 = getelementptr inbounds nuw i8, ptr %0, i64 4712
  %27 = load ptr, ptr %26, align 8, !tbaa !84
  %.not35 = icmp eq ptr %27, null
  br i1 %.not35, label %34, label %28

28:                                               ; preds = %25
  %29 = getelementptr inbounds nuw i8, ptr %27, i64 8
  %30 = load i32, ptr %29, align 8, !tbaa !85
  %31 = icmp sgt i32 %30, 0
  %32 = load i32, ptr getelementptr inbounds nuw (i8, ptr @Curl_trc_feat_write, i64 8), align 8
  %33 = icmp sgt i32 %32, 0
  %or.cond = select i1 %31, i1 %33, i1 false
  br i1 %or.cond, label %35, label %37

34:                                               ; preds = %25
  %.old = load i32, ptr getelementptr inbounds nuw (i8, ptr @Curl_trc_feat_write, i64 8), align 8, !tbaa !85
  %.old1 = icmp sgt i32 %.old, 0
  br i1 %.old1, label %35, label %37

35:                                               ; preds = %28, %34
  %36 = zext i1 %3 to i32
  tail call void (ptr, ptr, ...) @Curl_trc_write(ptr noundef nonnull %0, ptr noundef nonnull @.str.11, i64 noundef %2, i32 noundef %36, i32 noundef %.027) #6
  br label %37

37:                                               ; preds = %35, %34, %28, %21
  ret i32 %.027
}